; Function Attrs: mustprogress nounwind uwtable
define internal fastcc void @"_ZZN5clang14TextNodeDumper22VisitFunctionProtoTypeEPKNS_17FunctionProtoTypeEENK3$_0clEv"(ptr nocapture noundef nonnull readonly align 8 dereferenceable(128) %0) unnamed_addr #0 align 2 {
  %2 = load ptr, ptr %0, align 8
  %3 = getelementptr inbounds nuw i8, ptr %2, i64 1096
  %4 = load ptr, ptr %3, align 8
  %5 = getelementptr inbounds nuw i8, ptr %4, i64 24
  %6 = load ptr, ptr %5, align 8
  %7 = getelementptr inbounds nuw i8, ptr %4, i64 32
  %8 = load ptr, ptr %7, align 8
  %9 = ptrtoint ptr %6 to i64
  %10 = ptrtoint ptr %8 to i64
  %11 = sub i64 %9, %10
  %12 = icmp ult i64 %11, 11
  br i1 %12, label %13, label %15

13:                                               ; preds = %1
  %14 = tail call noundef nonnull align 8 dereferenceable(48) ptr @_ZN4llvm11raw_ostream5writeEPKcm(ptr noundef nonnull align 8 dereferenceable(48) %4, ptr noundef nonnull @.str.1154, i64 noundef 11) #18
  br label %_ZN4llvm11raw_ostreamlsEPKc.exit

15:                                               ; preds = %1
  tail call void @llvm.memcpy.p0.p0.i64(ptr noundef nonnull align 1 dereferenceable(11) %8, ptr noundef nonnull align 1 dereferenceable(11) @.str.1154, i64 11, i1 false)
  %16 = load ptr, ptr %7, align 8
  %17 = getelementptr inbounds i8, ptr %16, i64 11
  store ptr %17, ptr %7, align 8
  br label %_ZN4llvm11raw_ostreamlsEPKc.exit

_ZN4llvm11raw_ostreamlsEPKc.exit:                 ; preds = %13, %15
  %18 = getelementptr inbounds i8, ptr %0, i64 40
  %19 = getelementptr inbounds i8, ptr %0, i64 48
  %20 = load i64, ptr %19, align 8
  %21 = and i64 %20, 4294967295
  %.not9 = icmp eq i64 %21, 0
  br i1 %.not9, label %._crit_edge, label %.lr.ph.preheader

.lr.ph.preheader:                                 ; preds = %_ZN4llvm11raw_ostreamlsEPKc.exit
  %22 = and i64 %20, 4294967295
  br label %.lr.ph

.lr.ph:                                           ; preds = %.lr.ph.preheader, %_ZN5clang14TextNodeDumper8dumpTypeENS_8QualTypeE.exit
  %indvars.iv = phi i64 [ 0, %.lr.ph.preheader ], [ %indvars.iv.next, %_ZN5clang14TextNodeDumper8dumpTypeENS_8QualTypeE.exit ]
  %.not5 = icmp eq i64 %indvars.iv, 0
  br i1 %.not5, label %_ZN4llvm11raw_ostreamlsEPKc.exit8, label %23

23:                                               ; preds = %.lr.ph
  %24 = load ptr, ptr %3, align 8
  %25 = getelementptr inbounds nuw i8, ptr %24, i64 24
  %26 = load ptr, ptr %25, align 8
  %27 = getelementptr inbounds nuw i8, ptr %24, i64 32
  %28 = load ptr, ptr %27, align 8
  %29 = icmp eq ptr %26, %28
  br i1 %29, label %30, label %32

30:                                               ; preds = %23
  %31 = tail call noundef nonnull align 8 dereferenceable(48) ptr @_ZN4llvm11raw_ostream5writeEPKcm(ptr noundef nonnull align 8 dereferenceable(48) %24, ptr noundef nonnull @.str.1155, i64 noundef 1) #18
  br label %_ZN4llvm11raw_ostreamlsEPKc.exit8

32:                                               ; preds = %23
  store i8 44, ptr %28, align 1
  %33 = load ptr, ptr %27, align 8
  %34 = getelementptr inbounds i8, ptr %33, i64 1
  store ptr %34, ptr %27, align 8
  br label %_ZN4llvm11raw_ostreamlsEPKc.exit8

_ZN4llvm11raw_ostreamlsEPKc.exit8:                ; preds = %32, %30, %.lr.ph
  %35 = load ptr, ptr %18, align 8
  %36 = getelementptr inbounds %"class.clang::QualType", ptr %35, i64 %indvars.iv
  %.sroa.0.0.copyload = load i64, ptr %36, align 8
  %37 = load ptr, ptr %3, align 8
  %38 = getelementptr inbounds nuw i8, ptr %37, i64 32
  %39 = load ptr, ptr %38, align 8
  %40 = getelementptr inbounds nuw i8, ptr %37, i64 24
  %41 = load ptr, ptr %40, align 8
  %.not.i.i = icmp ult ptr %39, %41
  br i1 %.not.i.i, label %44, label %42

42:                                               ; preds = %_ZN4llvm11raw_ostreamlsEPKc.exit8
  %43 = tail call noundef nonnull align 8 dereferenceable(48) ptr @_ZN4llvm11raw_ostream5writeEh(ptr noundef nonnull align 8 dereferenceable(48) %37, i8 noundef zeroext 32) #18
  br label %_ZN5clang14TextNodeDumper8dumpTypeENS_8QualTypeE.exit

44:                                               ; preds = %_ZN4llvm11raw_ostreamlsEPKc.exit8
  %45 = getelementptr inbounds i8, ptr %39, i64 1
  store ptr %45, ptr %38, align 8
  store i8 32, ptr %39, align 1
  br label %_ZN5clang14TextNodeDumper8dumpTypeENS_8QualTypeE.exit

_ZN5clang14TextNodeDumper8dumpTypeENS_8QualTypeE.exit: ; preds = %42, %44
  tail call void @_ZN5clang14TextNodeDumper12dumpBareTypeENS_8QualTypeEb(ptr noundef nonnull align 8 dereferenceable(1168) %2, i64 %.sroa.0.0.copyload, i1 noundef zeroext true)
  %indvars.iv.next = add nuw nsw i64 %indvars.iv, 1
  %.not = icmp eq i64 %indvars.iv.next, %22
  br i1 %.not, label %._crit_edge, label %.lr.ph, !llvm.loop !155

._crit_edge:                                      ; preds = %_ZN5clang14TextNodeDumper8dumpTypeENS_8QualTypeE.exit, %_ZN4llvm11raw_ostreamlsEPKc.exit
  ret void
}